; ModuleID = 'source-C-CXX/48/794.cpp'
source_filename = "source-C-CXX/48/794.cpp"
target datalayout = "e-m:e-p270:32:32-p271:32:32-p272:64:64-i64:64-f80:128-n8:16:32:64-S128"
target triple = "x86_64-pc-linux-gnu"

%"class.std::ios_base::Init" = type { i8 }
%"class.std::basic_istream" = type { i32 (...)**, i64, %"class.std::basic_ios" }
%"class.std::basic_ios" = type { %"class.std::ios_base", %"class.std::basic_ostream"*, i8, i8, %"class.std::basic_streambuf"*, %"class.std::ctype"*, %"class.std::num_put"*, %"class.std::num_get"* }
%"class.std::ios_base" = type { i32 (...)**, i64, i64, i32, i32, i32, %"struct.std::ios_base::_Callback_list"*, %"struct.std::ios_base::_Words", [8 x %"struct.std::ios_base::_Words"], i32, %"struct.std::ios_base::_Words"*, %"class.std::locale" }
%"struct.std::ios_base::_Callback_list" = type { %"struct.std::ios_base::_Callback_list"*, void (i32, %"class.std::ios_base"*, i32)*, i32, i32 }
%"struct.std::ios_base::_Words" = type { i8*, i64 }
%"class.std::locale" = type { %"class.std::locale::_Impl"* }
%"class.std::locale::_Impl" = type { i32, %"class.std::locale::facet"**, i64, %"class.std::locale::facet"**, i8** }
%"class.std::locale::facet" = type <{ i32 (...)**, i32, [4 x i8] }>
%"class.std::basic_ostream" = type { i32 (...)**, %"class.std::basic_ios" }
%"class.std::basic_streambuf" = type { i32 (...)**, i8*, i8*, i8*, i8*, i8*, i8*, %"class.std::locale" }
%"class.std::ctype" = type <{ %"class.std::locale::facet.base", [4 x i8], %struct.__locale_struct*, i8, [7 x i8], i32*, i32*, i16*, i8, [256 x i8], [256 x i8], i8, [6 x i8] }>
%"class.std::locale::facet.base" = type <{ i32 (...)**, i32 }>
%struct.__locale_struct = type { [13 x %struct.__locale_data*], i16*, i32*, i32*, [13 x i8*] }
%struct.__locale_data = type opaque
%"class.std::num_put" = type { %"class.std::locale::facet.base", [4 x i8] }
%"class.std::num_get" = type { %"class.std::locale::facet.base", [4 x i8] }

@_ZStL8__ioinit = internal global %"class.std::ios_base::Init" zeroinitializer, align 1
@__dso_handle = external hidden global i8
@ls = dso_local global [100 x i8] zeroinitializer, align 16
@_ZSt3cin = external global %"class.std::basic_istream", align 8
@_ZSt4cout = external global %"class.std::basic_ostream", align 8
@llvm.global_ctors = appending global [1 x { i32, void ()*, i8* }] [{ i32, void ()*, i8* } { i32 65535, void ()* @_GLOBAL__sub_I_794.cpp, i8* null }]

declare void @_ZNSt8ios_base4InitC1Ev(%"class.std::ios_base::Init"* nonnull align 1 dereferenceable(1)) unnamed_addr #0

; Function Attrs: nounwind
declare void @_ZNSt8ios_base4InitD1Ev(%"class.std::ios_base::Init"* nonnull align 1 dereferenceable(1)) unnamed_addr #1

; Function Attrs: nofree nounwind
declare i32 @__cxa_atexit(void (i8*)*, i8*, i8*) local_unnamed_addr #2

; Function Attrs: mustprogress norecurse sspstrong uwtable
define dso_local i32 @main() local_unnamed_addr #3 {
  %1 = alloca i8, align 1
  tail call void @_ZSt17__istream_extractRSiPcl(%"class.std::basic_istream"* nonnull align 8 dereferenceable(16) @_ZSt3cin, i8* nonnull getelementptr inbounds ([100 x i8], [100 x i8]* @ls, i64 0, i64 0), i64 100)
  %2 = tail call i64 @strlen(i8* noundef nonnull dereferenceable(1) getelementptr inbounds ([100 x i8], [100 x i8]* @ls, i64 0, i64 0)) #9
  %3 = trunc i64 %2 to i32
  %4 = icmp slt i32 %3, 2
  br i1 %4, label %18, label %5

5:                                                ; preds = %0
  %6 = add i64 %2, 1
  %7 = and i64 %6, 4294967295
  br label %8

8:                                                ; preds = %5, %19
  %9 = phi i32 [ %3, %5 ], [ %12, %19 ]
  %10 = phi i64 [ 2, %5 ], [ %21, %19 ]
  %11 = phi i32 [ 2, %5 ], [ %20, %19 ]
  %12 = add i32 %9, -1
  %13 = add nsw i32 %11, -1
  %14 = icmp sgt i32 %11, %3
  br i1 %14, label %19, label %15

15:                                               ; preds = %8
  %16 = lshr i64 %10, 1
  %17 = zext i32 %12 to i64
  br label %23

18:                                               ; preds = %19, %0
  ret i32 0

19:                                               ; preds = %78, %8
  %20 = add nuw nsw i32 %11, 1
  %21 = add nuw nsw i64 %10, 1
  %22 = icmp eq i64 %21, %7
  br i1 %22, label %18, label %8, !llvm.loop !5

23:                                               ; preds = %15, %78
  %24 = phi i64 [ %10, %15 ], [ %81, %78 ]
  %25 = phi i64 [ 0, %15 ], [ %79, %78 ]
  %26 = phi i64 [ %16, %15 ], [ %80, %78 ]
  %27 = trunc i64 %25 to i32
  %28 = shl i32 %27, 1
  %29 = add i32 %13, %28
  br label %32

30:                                               ; preds = %32
  %31 = icmp eq i64 %42, %26
  br i1 %31, label %71, label %32, !llvm.loop !7

32:                                               ; preds = %30, %23
  %33 = phi i64 [ %25, %23 ], [ %42, %30 ]
  %34 = getelementptr inbounds [100 x i8], [100 x i8]* @ls, i64 0, i64 %33
  %35 = load i8, i8* %34, align 1, !tbaa !8
  %36 = trunc i64 %33 to i32
  %37 = sub i32 %29, %36
  %38 = sext i32 %37 to i64
  %39 = getelementptr inbounds [100 x i8], [100 x i8]* @ls, i64 0, i64 %38
  %40 = load i8, i8* %39, align 1, !tbaa !8
  %41 = icmp eq i8 %35, %40
  %42 = add nuw nsw i64 %33, 1
  br i1 %41, label %30, label %78

43:                                               ; preds = %71
  %44 = load i8*, i8** bitcast (%"class.std::basic_ostream"* @_ZSt4cout to i8**), align 8, !tbaa !11
  %45 = getelementptr i8, i8* %44, i64 -24
  %46 = bitcast i8* %45 to i64*
  %47 = load i64, i64* %46, align 8
  %48 = add nsw i64 %47, 240
  %49 = getelementptr inbounds i8, i8* bitcast (%"class.std::basic_ostream"* @_ZSt4cout to i8*), i64 %48
  %50 = bitcast i8* %49 to %"class.std::ctype"**
  %51 = load %"class.std::ctype"*, %"class.std::ctype"** %50, align 8, !tbaa !13
  %52 = icmp eq %"class.std::ctype"* %51, null
  br i1 %52, label %53, label %54

53:                                               ; preds = %43
  call void @_ZSt16__throw_bad_castv() #10
  unreachable

54:                                               ; preds = %43
  %55 = getelementptr inbounds %"class.std::ctype", %"class.std::ctype"* %51, i64 0, i32 8
  %56 = load i8, i8* %55, align 8, !tbaa !17
  %57 = icmp eq i8 %56, 0
  br i1 %57, label %61, label %58

58:                                               ; preds = %54
  %59 = getelementptr inbounds %"class.std::ctype", %"class.std::ctype"* %51, i64 0, i32 9, i64 10
  %60 = load i8, i8* %59, align 1, !tbaa !8
  br label %67

61:                                               ; preds = %54
  call void @_ZNKSt5ctypeIcE13_M_widen_initEv(%"class.std::ctype"* nonnull align 8 dereferenceable(570) %51)
  %62 = bitcast %"class.std::ctype"* %51 to i8 (%"class.std::ctype"*, i8)***
  %63 = load i8 (%"class.std::ctype"*, i8)**, i8 (%"class.std::ctype"*, i8)*** %62, align 8, !tbaa !11
  %64 = getelementptr inbounds i8 (%"class.std::ctype"*, i8)*, i8 (%"class.std::ctype"*, i8)** %63, i64 6
  %65 = load i8 (%"class.std::ctype"*, i8)*, i8 (%"class.std::ctype"*, i8)** %64, align 8
  %66 = call signext i8 %65(%"class.std::ctype"* nonnull align 8 dereferenceable(570) %51, i8 signext 10)
  br label %67

67:                                               ; preds = %58, %61
  %68 = phi i8 [ %60, %58 ], [ %66, %61 ]
  %69 = call nonnull align 8 dereferenceable(8) %"class.std::basic_ostream"* @_ZNSo3putEc(%"class.std::basic_ostream"* nonnull align 8 dereferenceable(8) @_ZSt4cout, i8 signext %68)
  %70 = call nonnull align 8 dereferenceable(8) %"class.std::basic_ostream"* @_ZNSo5flushEv(%"class.std::basic_ostream"* nonnull align 8 dereferenceable(8) %69)
  br label %78

71:                                               ; preds = %30, %71
  %72 = phi i64 [ %76, %71 ], [ %25, %30 ]
  %73 = getelementptr inbounds [100 x i8], [100 x i8]* @ls, i64 0, i64 %72
  %74 = load i8, i8* %73, align 1, !tbaa !8
  call void @llvm.lifetime.start.p0i8(i64 1, i8* nonnull %1)
  store i8 %74, i8* %1, align 1, !tbaa !8
  %75 = call nonnull align 8 dereferenceable(8) %"class.std::basic_ostream"* @_ZSt16__ostream_insertIcSt11char_traitsIcEERSt13basic_ostreamIT_T0_ES6_PKS3_l(%"class.std::basic_ostream"* nonnull align 8 dereferenceable(8) @_ZSt4cout, i8* nonnull %1, i64 1)
  call void @llvm.lifetime.end.p0i8(i64 1, i8* nonnull %1)
  %76 = add nuw nsw i64 %72, 1
  %77 = icmp eq i64 %76, %24
  br i1 %77, label %43, label %71, !llvm.loop !19

78:                                               ; preds = %32, %67
  %79 = add nuw nsw i64 %25, 1
  %80 = add nuw nsw i64 %26, 1
  %81 = add nuw nsw i64 %24, 1
  %82 = icmp eq i64 %79, %17
  br i1 %82, label %19, label %23, !llvm.loop !20
}

; Function Attrs: argmemonly mustprogress nofree nounwind readonly willreturn
declare i64 @strlen(i8* nocapture) local_unnamed_addr #4

; Function Attrs: mustprogress nofree norecurse nosync nounwind readonly sspstrong uwtable willreturn
define dso_local i32 @_Z6pafindii(i32 %0, i32 %1) local_unnamed_addr #5 {
  %3 = shl i32 %0, 1
  %4 = add i32 %1, -1
  %5 = add i32 %4, %3
  %6 = icmp sgt i32 %1, 1
  br i1 %6, label %7, label %25

7:                                                ; preds = %2
  %8 = lshr i32 %1, 1
  %9 = add nsw i32 %8, %0
  %10 = sext i32 %0 to i64
  %11 = sext i32 %9 to i64
  br label %14

12:                                               ; preds = %14
  %13 = icmp slt i64 %24, %11
  br i1 %13, label %14, label %25, !llvm.loop !7

14:                                               ; preds = %7, %12
  %15 = phi i64 [ %10, %7 ], [ %24, %12 ]
  %16 = getelementptr inbounds [100 x i8], [100 x i8]* @ls, i64 0, i64 %15
  %17 = load i8, i8* %16, align 1, !tbaa !8
  %18 = trunc i64 %15 to i32
  %19 = sub i32 %5, %18
  %20 = sext i32 %19 to i64
  %21 = getelementptr inbounds [100 x i8], [100 x i8]* @ls, i64 0, i64 %20
  %22 = load i8, i8* %21, align 1, !tbaa !8
  %23 = icmp eq i8 %17, %22
  %24 = add nsw i64 %15, 1
  br i1 %23, label %12, label %25

25:                                               ; preds = %12, %14, %2
  %26 = phi i32 [ 1, %2 ], [ 0, %14 ], [ 1, %12 ]
  ret i32 %26
}

declare void @_ZSt17__istream_extractRSiPcl(%"class.std::basic_istream"* nonnull align 8 dereferenceable(16), i8*, i64) local_unnamed_addr #0

declare nonnull align 8 dereferenceable(8) %"class.std::basic_ostream"* @_ZSt16__ostream_insertIcSt11char_traitsIcEERSt13basic_ostreamIT_T0_ES6_PKS3_l(%"class.std::basic_ostream"* nonnull align 8 dereferenceable(8), i8*, i64) local_unnamed_addr #0

declare nonnull align 8 dereferenceable(8) %"class.std::basic_ostream"* @_ZNSo3putEc(%"class.std::basic_ostream"* nonnull align 8 dereferenceable(8), i8 signext) local_unnamed_addr #0

declare nonnull align 8 dereferenceable(8) %"class.std::basic_ostream"* @_ZNSo5flushEv(%"class.std::basic_ostream"* nonnull align 8 dereferenceable(8)) local_unnamed_addr #0

; Function Attrs: noreturn
declare void @_ZSt16__throw_bad_castv() local_unnamed_addr #6

declare void @_ZNKSt5ctypeIcE13_M_widen_initEv(%"class.std::ctype"* nonnull align 8 dereferenceable(570)) local_unnamed_addr #0

; Function Attrs: sspstrong uwtable
define internal void @_GLOBAL__sub_I_794.cpp() #7 section ".text.startup" {
  tail call void @_ZNSt8ios_base4InitC1Ev(%"class.std::ios_base::Init"* nonnull align 1 dereferenceable(1) @_ZStL8__ioinit)
  %1 = tail call i32 @__cxa_atexit(void (i8*)* bitcast (void (%"class.std::ios_base::Init"*)* @_ZNSt8ios_base4InitD1Ev to void (i8*)*), i8* getelementptr inbounds (%"class.std::ios_base::Init", %"class.std::ios_base::Init"* @_ZStL8__ioinit, i64 0, i32 0), i8* nonnull @__dso_handle) #11
  ret void
}

; Function Attrs: argmemonly nofree nosync nounwind willreturn
declare void @llvm.lifetime.start.p0i8(i64 immarg, i8* nocapture) #8

; Function Attrs: argmemonly nofree nosync nounwind willreturn
declare void @llvm.lifetime.end.p0i8(i64 immarg, i8* nocapture) #8


!llvm.module.flags = !{!0, !1, !2, !3}
!llvm.ident = !{!4}

!0 = !{i32 1, !"wchar_size", i32 4}
!1 = !{i32 7, !"PIC Level", i32 2}
!2 = !{i32 7, !"PIE Level", i32 2}
!3 = !{i32 7, !"uwtable", i32 1}
!4 = !{!"clang version 13.0.0"}
!5 = distinct !{!5, !6}
!6 = !{!"llvm.loop.mustprogress"}
!7 = distinct !{!7, !6}
!8 = !{!9, !9, i64 0}
!9 = !{!"omnipotent char", !10, i64 0}
!10 = !{!"Simple C++ TBAA"}
!11 = !{!12, !12, i64 0}
!12 = !{!"vtable pointer", !10, i64 0}
!13 = !{!14, !15, i64 240}
!14 = !{!"_ZTSSt9basic_iosIcSt11char_traitsIcEE", !15, i64 216, !9, i64 224, !16, i64 225, !15, i64 232, !15, i64 240, !15, i64 248, !15, i64 256}
!15 = !{!"any pointer", !9, i64 0}
!16 = !{!"bool", !9, i64 0}
!17 = !{!18, !9, i64 56}
!18 = !{!"_ZTSSt5ctypeIcE", !15, i64 16, !16, i64 24, !15, i64 32, !15, i64 40, !15, i64 48, !9, i64 56, !9, i64 57, !9, i64 313, !9, i64 569}
!19 = distinct !{!19, !6}
!20 = distinct !{!20, !6}
